target datalayout = "e-m:e-p270:32:32-p271:32:32-p272:64:64-i64:64-i128:128-f80:128-n8:16:32:64-S128"
target triple = "x86_64-pc-linux-gnu"

; Function Attrs: nounwind uwtable
define internal i32 @clamp(i32 noundef %0, i32 noundef %1, i32 noundef %2) #0 {
  %4 = alloca i32, align 4
  %5 = alloca i32, align 4
  %6 = alloca i32, align 4
  store i32 %0, ptr %4, align 4
  store i32 %1, ptr %5, align 4
  store i32 %2, ptr %6, align 4
  %7 = load i32, ptr %4, align 4
  %8 = load i32, ptr %5, align 4
  %9 = icmp slt i32 %7, %8
  br i1 %9, label %10, label %12

10:                                               ; preds = %3
  %11 = load i32, ptr %5, align 4
  br label %22

12:                                               ; preds = %3
  %13 = load i32, ptr %4, align 4
  %14 = load i32, ptr %6, align 4
  %15 = icmp sgt i32 %13, %14
  br i1 %15, label %16, label %18

16:                                               ; preds = %12
  %17 = load i32, ptr %6, align 4
  br label %20

18:                                               ; preds = %12
  %19 = load i32, ptr %4, align 4
  br label %20

20:                                               ; preds = %18, %16
  %21 = phi i32 [ %17, %16 ], [ %19, %18 ]
  br label %22

22:                                               ; preds = %20, %10
  %23 = phi i32 [ %11, %10 ], [ %21, %20 ]
  ret i32 %23
}

; Function Attrs: nounwind uwtable
define internal zeroext i16 @clip_pixel_highbd(i32 noundef %0, i32 noundef %1) #0 {
  %3 = alloca i16, align 2
  %4 = alloca i32, align 4
  %5 = alloca i32, align 4
  store i32 %0, ptr %4, align 4
  store i32 %1, ptr %5, align 4
  %6 = load i32, ptr %5, align 4
  switch i32 %6, label %8 [
    i32 8, label %7
    i32 10, label %12
    i32 12, label %16
  ]

7:                                                ; preds = %2
  br label %8

8:                                                ; preds = %7, %2
  %9 = load i32, ptr %4, align 4
  %10 = call i32 @clamp(i32 noundef %9, i32 noundef 0, i32 noundef 255)
  %11 = trunc i32 %10 to i16
  store i16 %11, ptr %3, align 2
  br label %20

12:                                               ; preds = %2
  %13 = load i32, ptr %4, align 4
  %14 = call i32 @clamp(i32 noundef %13, i32 noundef 0, i32 noundef 1023)
  %15 = trunc i32 %14 to i16
  store i16 %15, ptr %3, align 2
  br label %20

16:                                               ; preds = %2
  %17 = load i32, ptr %4, align 4
  %18 = call i32 @clamp(i32 noundef %17, i32 noundef 0, i32 noundef 4095)
  %19 = trunc i32 %18 to i16
  store i16 %19, ptr %3, align 2
  br label %20

20:                                               ; preds = %16, %12, %8
  %21 = load i16, ptr %3, align 2
  ret i16 %21
}

; Function Attrs: nounwind uwtable
define hidden void @av1_highbd_convolve_horiz_rs_c(ptr noundef %0, i32 noundef %1, ptr noundef %2, i32 noundef %3, i32 noundef %4, i32 noundef %5, ptr noundef %6, i32 noundef %7, i32 noundef %8, i32 noundef %9) #0 {
  %11 = alloca ptr, align 8
  %12 = alloca i32, align 4
  %13 = alloca ptr, align 8
  %14 = alloca i32, align 4
  %15 = alloca i32, align 4
  %16 = alloca i32, align 4
  %17 = alloca ptr, align 8
  %18 = alloca i32, align 4
  %19 = alloca i32, align 4
  %20 = alloca i32, align 4
  %21 = alloca i32, align 4
  %22 = alloca i32, align 4
  %23 = alloca i32, align 4
  %24 = alloca ptr, align 8
  %25 = alloca i32, align 4
  %26 = alloca ptr, align 8
  %27 = alloca i32, align 4
  %28 = alloca i32, align 4
  store ptr %0, ptr %11, align 8
  store i32 %1, ptr %12, align 4
  store ptr %2, ptr %13, align 8
  store i32 %3, ptr %14, align 4
  store i32 %4, ptr %15, align 4
  store i32 %5, ptr %16, align 4
  store ptr %6, ptr %17, align 8
  store i32 %7, ptr %18, align 4
  store i32 %8, ptr %19, align 4
  store i32 %9, ptr %20, align 4
  %29 = load ptr, ptr %11, align 8
  %30 = getelementptr inbounds i16, ptr %29, i64 -3
  store ptr %30, ptr %11, align 8
  store i32 0, ptr %21, align 4
  br label %31

31:                                               ; preds = %102, %10
  %32 = load i32, ptr %21, align 4
  %33 = load i32, ptr %16, align 4
  %34 = icmp slt i32 %32, %33
  br i1 %34, label %35, label %105

35:                                               ; preds = %31
  %36 = load i32, ptr %18, align 4
  store i32 %36, ptr %22, align 4
  store i32 0, ptr %23, align 4
  br label %37

37:                                               ; preds = %90, %35
  %38 = load i32, ptr %23, align 4
  %39 = load i32, ptr %15, align 4
  %40 = icmp slt i32 %38, %39
  br i1 %40, label %41, label %93

41:                                               ; preds = %37
  %42 = load ptr, ptr %11, align 8
  %43 = load i32, ptr %22, align 4
  %44 = ashr i32 %43, 14
  %45 = sext i32 %44 to i64
  %46 = getelementptr inbounds i16, ptr %42, i64 %45
  store ptr %46, ptr %24, align 8
  %47 = load i32, ptr %22, align 4
  %48 = and i32 %47, 16383
  %49 = ashr i32 %48, 8
  store i32 %49, ptr %25, align 4
  %50 = load ptr, ptr %17, align 8
  %51 = load i32, ptr %25, align 4
  %52 = mul nsw i32 %51, 8
  %53 = sext i32 %52 to i64
  %54 = getelementptr inbounds i16, ptr %50, i64 %53
  store ptr %54, ptr %26, align 8
  store i32 0, ptr %27, align 4
  store i32 0, ptr %28, align 4
  br label %55

55:                                               ; preds = %74, %41
  %56 = load i32, ptr %28, align 4
  %57 = icmp slt i32 %56, 8
  br i1 %57, label %58, label %77

58:                                               ; preds = %55
  %59 = load ptr, ptr %24, align 8
  %60 = load i32, ptr %28, align 4
  %61 = sext i32 %60 to i64
  %62 = getelementptr inbounds i16, ptr %59, i64 %61
  %63 = load i16, ptr %62, align 2
  %64 = zext i16 %63 to i32
  %65 = load ptr, ptr %26, align 8
  %66 = load i32, ptr %28, align 4
  %67 = sext i32 %66 to i64
  %68 = getelementptr inbounds i16, ptr %65, i64 %67
  %69 = load i16, ptr %68, align 2
  %70 = sext i16 %69 to i32
  %71 = mul nsw i32 %64, %70
  %72 = load i32, ptr %27, align 4
  %73 = add nsw i32 %72, %71
  store i32 %73, ptr %27, align 4
  br label %74

74:                                               ; preds = %58
  %75 = load i32, ptr %28, align 4
  %76 = add nsw i32 %75, 1
  store i32 %76, ptr %28, align 4
  br label %55, !llvm.loop !8

77:                                               ; preds = %55
  %78 = load i32, ptr %27, align 4
  %79 = add nsw i32 %78, 64
  %80 = ashr i32 %79, 7
  %81 = load i32, ptr %20, align 4
  %82 = call zeroext i16 @clip_pixel_highbd(i32 noundef %80, i32 noundef %81)
  %83 = load ptr, ptr %13, align 8
  %84 = load i32, ptr %23, align 4
  %85 = sext i32 %84 to i64
  %86 = getelementptr inbounds i16, ptr %83, i64 %85
  store i16 %82, ptr %86, align 2
  %87 = load i32, ptr %19, align 4
  %88 = load i32, ptr %22, align 4
  %89 = add nsw i32 %88, %87
  store i32 %89, ptr %22, align 4
  br label %90

90:                                               ; preds = %77
  %91 = load i32, ptr %23, align 4
  %92 = add nsw i32 %91, 1
  store i32 %92, ptr %23, align 4
  br label %37, !llvm.loop !9

93:                                               ; preds = %37
  %94 = load i32, ptr %12, align 4
  %95 = load ptr, ptr %11, align 8
  %96 = sext i32 %94 to i64
  %97 = getelementptr inbounds i16, ptr %95, i64 %96
  store ptr %97, ptr %11, align 8
  %98 = load i32, ptr %14, align 4
  %99 = load ptr, ptr %13, align 8
  %100 = sext i32 %98 to i64
  %101 = getelementptr inbounds i16, ptr %99, i64 %100
  store ptr %101, ptr %13, align 8
  br label %102

102:                                              ; preds = %93
  %103 = load i32, ptr %21, align 4
  %104 = add nsw i32 %103, 1
  store i32 %104, ptr %21, align 4
  br label %31, !llvm.loop !10

105:                                              ; preds = %31
  ret void
}