; Function Attrs: nofree norecurse nosync nounwind memory(argmem: readwrite) uwtable
define hidden void @av1_highbd_convolve_horiz_rs_c(ptr noundef readonly captures(none) %0, i32 noundef %1, ptr noundef writeonly captures(none) %2, i32 noundef %3, i32 noundef %4, i32 noundef %5, ptr noundef readonly captures(none) %6, i32 noundef %7, i32 noundef %8, i32 noundef %9) local_unnamed_addr #0 {
  %11 = getelementptr inbounds i8, ptr %0, i64 -6
  %12 = icmp sgt i32 %5, 0
  br i1 %12, label %.preheader.lr.ph, label %._crit_edge55

.preheader.lr.ph:                                 ; preds = %10
  %13 = icmp sgt i32 %4, 0
  %14 = sext i32 %1 to i64
  %15 = sext i32 %3 to i64
  br i1 %13, label %.preheader.lr.ph.split.us, label %._crit_edge55

.preheader.lr.ph.split.us:                        ; preds = %.preheader.lr.ph
  %wide.trip.count101 = zext nneg i32 %4 to i64
  switch i32 %9, label %.preheader.us [
    i32 12, label %.preheader.us.us
    i32 10, label %.preheader.us.us67
  ]

.preheader.us.us:                                 ; preds = %.preheader.lr.ph.split.us, %._crit_edge.split.us.us.us
  %.03052.us.us = phi ptr [ %40, %._crit_edge.split.us.us.us ], [ %11, %.preheader.lr.ph.split.us ]
  %.03149.us.us = phi ptr [ %41, %._crit_edge.split.us.us.us ], [ %2, %.preheader.lr.ph.split.us ]
  %.03248.us.us = phi i32 [ %42, %._crit_edge.split.us.us.us ], [ 0, %.preheader.lr.ph.split.us ]
  br label %16

16:                                               ; preds = %clip_pixel_highbd.exit.us.us.us, %.preheader.us.us
  %indvars.iv88 = phi i64 [ %indvars.iv.next89, %clip_pixel_highbd.exit.us.us.us ], [ 0, %.preheader.us.us ]
  %.03437.us.us.us = phi i32 [ %30, %clip_pixel_highbd.exit.us.us.us ], [ %7, %.preheader.us.us ]
  %17 = ashr i32 %.03437.us.us.us, 14
  %18 = sext i32 %17 to i64
  %19 = getelementptr inbounds i16, ptr %.03052.us.us, i64 %18
  %20 = lshr i32 %.03437.us.us.us, 5
  %21 = and i32 %20, 504
  %22 = zext nneg i32 %21 to i64
  %23 = getelementptr inbounds nuw i16, ptr %6, i64 %22
  br label %31

clip_pixel_highbd.exit.us.us.us:                  ; preds = %31
  %24 = add nsw i32 %39, 64
  %25 = ashr i32 %24, 7
  %26 = tail call i32 @llvm.umin.i32(i32 %25, i32 4095)
  %27 = icmp slt i32 %25, 0
  %28 = trunc nuw nsw i32 %26 to i16
  %.0.i.us.us.us = select i1 %27, i16 0, i16 %28
  %29 = getelementptr inbounds nuw i16, ptr %.03149.us.us, i64 %indvars.iv88
  store i16 %.0.i.us.us.us, ptr %29, align 2
  %30 = add nsw i32 %.03437.us.us.us, %8
  %indvars.iv.next89 = add nuw nsw i64 %indvars.iv88, 1
  %exitcond92.not = icmp eq i64 %indvars.iv.next89, %wide.trip.count101
  br i1 %exitcond92.not, label %._crit_edge.split.us.us.us, label %16, !llvm.loop !8

31:                                               ; preds = %31, %16
  %indvars.iv84 = phi i64 [ %indvars.iv.next85, %31 ], [ 0, %16 ]
  %.02935.us.us.us = phi i32 [ %39, %31 ], [ 0, %16 ]
  %32 = getelementptr inbounds nuw i16, ptr %19, i64 %indvars.iv84
  %33 = load i16, ptr %32, align 2
  %34 = zext i16 %33 to i32
  %35 = getelementptr inbounds nuw i16, ptr %23, i64 %indvars.iv84
  %36 = load i16, ptr %35, align 2
  %37 = sext i16 %36 to i32
  %38 = mul nsw i32 %37, %34
  %39 = add nsw i32 %38, %.02935.us.us.us
  %indvars.iv.next85 = add nuw nsw i64 %indvars.iv84, 1
  %exitcond87.not = icmp eq i64 %indvars.iv.next85, 8
  br i1 %exitcond87.not, label %clip_pixel_highbd.exit.us.us.us, label %31, !llvm.loop !9

._crit_edge.split.us.us.us:                       ; preds = %clip_pixel_highbd.exit.us.us.us
  %40 = getelementptr inbounds i16, ptr %.03052.us.us, i64 %14
  %41 = getelementptr inbounds i16, ptr %.03149.us.us, i64 %15
  %42 = add nuw nsw i32 %.03248.us.us, 1
  %exitcond93.not = icmp eq i32 %42, %5
  br i1 %exitcond93.not, label %._crit_edge55, label %.preheader.us.us, !llvm.loop !10

.preheader.us.us67:                               ; preds = %.preheader.lr.ph.split.us, %._crit_edge.split.split.us.us.us
  %.03052.us.us68 = phi ptr [ %67, %._crit_edge.split.split.us.us.us ], [ %11, %.preheader.lr.ph.split.us ]
  %.03149.us.us69 = phi ptr [ %68, %._crit_edge.split.split.us.us.us ], [ %2, %.preheader.lr.ph.split.us ]
  %.03248.us.us70 = phi i32 [ %69, %._crit_edge.split.split.us.us.us ], [ 0, %.preheader.lr.ph.split.us ]
  br label %43

43:                                               ; preds = %clip_pixel_highbd.exit.us43.us.us, %.preheader.us.us67
  %indvars.iv79 = phi i64 [ %indvars.iv.next80, %clip_pixel_highbd.exit.us43.us.us ], [ 0, %.preheader.us.us67 ]
  %.03437.us41.us.us = phi i32 [ %57, %clip_pixel_highbd.exit.us43.us.us ], [ %7, %.preheader.us.us67 ]
  %44 = ashr i32 %.03437.us41.us.us, 14
  %45 = sext i32 %44 to i64
  %46 = getelementptr inbounds i16, ptr %.03052.us.us68, i64 %45
  %47 = lshr i32 %.03437.us41.us.us, 5
  %48 = and i32 %47, 504
  %49 = zext nneg i32 %48 to i64
  %50 = getelementptr inbounds nuw i16, ptr %6, i64 %49
  br label %58

clip_pixel_highbd.exit.us43.us.us:                ; preds = %58
  %51 = add nsw i32 %66, 64
  %52 = ashr i32 %51, 7
  %53 = tail call i32 @llvm.umin.i32(i32 %52, i32 1023)
  %54 = icmp slt i32 %52, 0
  %55 = trunc nuw nsw i32 %53 to i16
  %.0.i.us45.us.us = select i1 %54, i16 0, i16 %55
  %56 = getelementptr inbounds nuw i16, ptr %.03149.us.us69, i64 %indvars.iv79
  store i16 %.0.i.us45.us.us, ptr %56, align 2
  %57 = add nsw i32 %.03437.us41.us.us, %8
  %indvars.iv.next80 = add nuw nsw i64 %indvars.iv79, 1
  %exitcond82.not = icmp eq i64 %indvars.iv.next80, %wide.trip.count101
  br i1 %exitcond82.not, label %._crit_edge.split.split.us.us.us, label %43, !llvm.loop !8

58:                                               ; preds = %58, %43
  %indvars.iv = phi i64 [ %indvars.iv.next, %58 ], [ 0, %43 ]
  %.02935.us47.us.us = phi i32 [ %66, %58 ], [ 0, %43 ]
  %59 = getelementptr inbounds nuw i16, ptr %46, i64 %indvars.iv
  %60 = load i16, ptr %59, align 2
  %61 = zext i16 %60 to i32
  %62 = getelementptr inbounds nuw i16, ptr %50, i64 %indvars.iv
  %63 = load i16, ptr %62, align 2
  %64 = sext i16 %63 to i32
  %65 = mul nsw i32 %64, %61
  %66 = add nsw i32 %65, %.02935.us47.us.us
  %indvars.iv.next = add nuw nsw i64 %indvars.iv, 1
  %exitcond.not = icmp eq i64 %indvars.iv.next, 8
  br i1 %exitcond.not, label %clip_pixel_highbd.exit.us43.us.us, label %58, !llvm.loop !9

._crit_edge.split.split.us.us.us:                 ; preds = %clip_pixel_highbd.exit.us43.us.us
  %67 = getelementptr inbounds i16, ptr %.03052.us.us68, i64 %14
  %68 = getelementptr inbounds i16, ptr %.03149.us.us69, i64 %15
  %69 = add nuw nsw i32 %.03248.us.us70, 1
  %exitcond83.not = icmp eq i32 %69, %5
  br i1 %exitcond83.not, label %._crit_edge55, label %.preheader.us.us67, !llvm.loop !10

.preheader.us:                                    ; preds = %.preheader.lr.ph.split.us, %._crit_edge.split.split.us63
  %.03052.us = phi ptr [ %94, %._crit_edge.split.split.us63 ], [ %11, %.preheader.lr.ph.split.us ]
  %.03149.us = phi ptr [ %95, %._crit_edge.split.split.us63 ], [ %2, %.preheader.lr.ph.split.us ]
  %.03248.us = phi i32 [ %96, %._crit_edge.split.split.us63 ], [ 0, %.preheader.lr.ph.split.us ]
  br label %70

70:                                               ; preds = %.preheader.us, %clip_pixel_highbd.exit.us58
  %indvars.iv98 = phi i64 [ 0, %.preheader.us ], [ %indvars.iv.next99, %clip_pixel_highbd.exit.us58 ]
  %.03437.us57 = phi i32 [ %7, %.preheader.us ], [ %84, %clip_pixel_highbd.exit.us58 ]
  %71 = ashr i32 %.03437.us57, 14
  %72 = sext i32 %71 to i64
  %73 = getelementptr inbounds i16, ptr %.03052.us, i64 %72
  %74 = lshr i32 %.03437.us57, 5
  %75 = and i32 %74, 504
  %76 = zext nneg i32 %75 to i64
  %77 = getelementptr inbounds nuw i16, ptr %6, i64 %76
  br label %85

clip_pixel_highbd.exit.us58:                      ; preds = %85
  %78 = add nsw i32 %93, 64
  %79 = ashr i32 %78, 7
  %80 = tail call i32 @llvm.umin.i32(i32 %79, i32 255)
  %81 = icmp slt i32 %79, 0
  %82 = trunc nuw nsw i32 %80 to i16
  %.0.i.us60 = select i1 %81, i16 0, i16 %82
  %83 = getelementptr inbounds nuw i16, ptr %.03149.us, i64 %indvars.iv98
  store i16 %.0.i.us60, ptr %83, align 2
  %84 = add nsw i32 %.03437.us57, %8
  %indvars.iv.next99 = add nuw nsw i64 %indvars.iv98, 1
  %exitcond102.not = icmp eq i64 %indvars.iv.next99, %wide.trip.count101
  br i1 %exitcond102.not, label %._crit_edge.split.split.us63, label %70, !llvm.loop !8

85:                                               ; preds = %85, %70
  %indvars.iv94 = phi i64 [ %indvars.iv.next95, %85 ], [ 0, %70 ]
  %.02935.us62 = phi i32 [ %93, %85 ], [ 0, %70 ]
  %86 = getelementptr inbounds nuw i16, ptr %73, i64 %indvars.iv94
  %87 = load i16, ptr %86, align 2
  %88 = zext i16 %87 to i32
  %89 = getelementptr inbounds nuw i16, ptr %77, i64 %indvars.iv94
  %90 = load i16, ptr %89, align 2
  %91 = sext i16 %90 to i32
  %92 = mul nsw i32 %91, %88
  %93 = add nsw i32 %92, %.02935.us62
  %indvars.iv.next95 = add nuw nsw i64 %indvars.iv94, 1
  %exitcond97.not = icmp eq i64 %indvars.iv.next95, 8
  br i1 %exitcond97.not, label %clip_pixel_highbd.exit.us58, label %85, !llvm.loop !9

._crit_edge.split.split.us63:                     ; preds = %clip_pixel_highbd.exit.us58
  %94 = getelementptr inbounds i16, ptr %.03052.us, i64 %14
  %95 = getelementptr inbounds i16, ptr %.03149.us, i64 %15
  %96 = add nuw nsw i32 %.03248.us, 1
  %exitcond103.not = icmp eq i32 %96, %5
  br i1 %exitcond103.not, label %._crit_edge55, label %.preheader.us, !llvm.loop !10

._crit_edge55:                                    ; preds = %._crit_edge.split.split.us.us.us, %._crit_edge.split.us.us.us, %._crit_edge.split.split.us63, %.preheader.lr.ph, %10
  ret void
}